target datalayout = "e-m:e-p270:32:32-p271:32:32-p272:64:64-i64:64-i128:128-f80:128-n8:16:32:64-S128"
target triple = "x86_64-pc-linux-gnu"

%struct.PaPulseAudio_HostApiRepresentation = type { %struct.PaUtilHostApiRepresentation, %struct.PaUtilStreamInterface, %struct.PaUtilStreamInterface, ptr, i32, [1024 x %struct.PaDeviceInfo], [1024 x ptr], %struct.pa_sample_spec, ptr, ptr, ptr, i32, ptr }
%struct.PaUtilHostApiRepresentation = type { %struct.PaUtilPrivatePaFrontHostApiInfo, %struct.PaHostApiInfo, ptr, ptr, ptr, ptr }
%struct.PaUtilPrivatePaFrontHostApiInfo = type { i64 }
%struct.PaHostApiInfo = type { i32, i32, ptr, i32, i32, i32 }
%struct.PaUtilStreamInterface = type { ptr, ptr, ptr, ptr, ptr, ptr, ptr, ptr, ptr, ptr, ptr, ptr }
%struct.PaDeviceInfo = type { i32, ptr, i32, i32, i32, double, double, double, double, double }
%struct.pa_sample_spec = type { i32, i32, i8 }
%struct.pa_mainloop_api = type { ptr, ptr, ptr, ptr, ptr, ptr, ptr, ptr, ptr, ptr, ptr, ptr, ptr, ptr }

@.str.5 = private unnamed_addr constant [64 x i8] c"PaPulseAudio_Free: Host API is NULL! Can't do anything about it\00", align 1

; Function Attrs: nounwind uwtable
define void @PaPulseAudio_Free(ptr noundef %0) #0 {
  %2 = alloca ptr, align 8
  store ptr %0, ptr %2, align 8
  %3 = load ptr, ptr %2, align 8
  %4 = icmp ne ptr %3, null
  br i1 %4, label %6, label %5

5:                                                ; preds = %1
  call void @PaUtil_SetLastHostErrorInfo(i32 noundef 0, i64 noundef 0, ptr noundef @.str.5)
  br label %79

6:                                                ; preds = %1
  %7 = load ptr, ptr %2, align 8
  %8 = getelementptr inbounds nuw %struct.PaPulseAudio_HostApiRepresentation, ptr %7, i32 0, i32 8
  %9 = load ptr, ptr %8, align 8
  %10 = icmp ne ptr %9, null
  br i1 %10, label %11, label %15

11:                                               ; preds = %6
  %12 = load ptr, ptr %2, align 8
  %13 = getelementptr inbounds nuw %struct.PaPulseAudio_HostApiRepresentation, ptr %12, i32 0, i32 8
  %14 = load ptr, ptr %13, align 8
  call void @pa_threaded_mainloop_stop(ptr noundef %14)
  br label %15

15:                                               ; preds = %11, %6
  %16 = load ptr, ptr %2, align 8
  %17 = getelementptr inbounds nuw %struct.PaPulseAudio_HostApiRepresentation, ptr %16, i32 0, i32 10
  %18 = load ptr, ptr %17, align 8
  %19 = icmp ne ptr %18, null
  br i1 %19, label %20, label %29

20:                                               ; preds = %15
  %21 = load ptr, ptr %2, align 8
  %22 = getelementptr inbounds nuw %struct.PaPulseAudio_HostApiRepresentation, ptr %21, i32 0, i32 10
  %23 = load ptr, ptr %22, align 8
  call void @pa_context_disconnect(ptr noundef %23)
  %24 = load ptr, ptr %2, align 8
  %25 = getelementptr inbounds nuw %struct.PaPulseAudio_HostApiRepresentation, ptr %24, i32 0, i32 10
  %26 = load ptr, ptr %25, align 8
  call void @pa_context_unref(ptr noundef %26)
  %27 = load ptr, ptr %2, align 8
  %28 = getelementptr inbounds nuw %struct.PaPulseAudio_HostApiRepresentation, ptr %27, i32 0, i32 10
  store ptr null, ptr %28, align 8
  br label %29

29:                                               ; preds = %20, %15
  %30 = load ptr, ptr %2, align 8
  %31 = getelementptr inbounds nuw %struct.PaPulseAudio_HostApiRepresentation, ptr %30, i32 0, i32 9
  %32 = load ptr, ptr %31, align 8
  %33 = icmp ne ptr %32, null
  br i1 %33, label %34, label %52

34:                                               ; preds = %29
  %35 = load ptr, ptr %2, align 8
  %36 = getelementptr inbounds nuw %struct.PaPulseAudio_HostApiRepresentation, ptr %35, i32 0, i32 12
  %37 = load ptr, ptr %36, align 8
  %38 = icmp ne ptr %37, null
  br i1 %38, label %39, label %52

39:                                               ; preds = %34
  %40 = load ptr, ptr %2, align 8
  %41 = getelementptr inbounds nuw %struct.PaPulseAudio_HostApiRepresentation, ptr %40, i32 0, i32 9
  %42 = load ptr, ptr %41, align 8
  %43 = getelementptr inbounds nuw %struct.pa_mainloop_api, ptr %42, i32 0, i32 7
  %44 = load ptr, ptr %43, align 8
  %45 = load ptr, ptr %2, align 8
  %46 = getelementptr inbounds nuw %struct.PaPulseAudio_HostApiRepresentation, ptr %45, i32 0, i32 12
  %47 = load ptr, ptr %46, align 8
  call void %44(ptr noundef %47)
  %48 = load ptr, ptr %2, align 8
  %49 = getelementptr inbounds nuw %struct.PaPulseAudio_HostApiRepresentation, ptr %48, i32 0, i32 9
  store ptr null, ptr %49, align 8
  %50 = load ptr, ptr %2, align 8
  %51 = getelementptr inbounds nuw %struct.PaPulseAudio_HostApiRepresentation, ptr %50, i32 0, i32 12
  store ptr null, ptr %51, align 8
  br label %52

52:                                               ; preds = %39, %34, %29
  %53 = load ptr, ptr %2, align 8
  %54 = getelementptr inbounds nuw %struct.PaPulseAudio_HostApiRepresentation, ptr %53, i32 0, i32 8
  %55 = load ptr, ptr %54, align 8
  %56 = icmp ne ptr %55, null
  br i1 %56, label %57, label %63

57:                                               ; preds = %52
  %58 = load ptr, ptr %2, align 8
  %59 = getelementptr inbounds nuw %struct.PaPulseAudio_HostApiRepresentation, ptr %58, i32 0, i32 8
  %60 = load ptr, ptr %59, align 8
  call void @pa_threaded_mainloop_free(ptr noundef %60)
  %61 = load ptr, ptr %2, align 8
  %62 = getelementptr inbounds nuw %struct.PaPulseAudio_HostApiRepresentation, ptr %61, i32 0, i32 8
  store ptr null, ptr %62, align 8
  br label %63

63:                                               ; preds = %57, %52
  %64 = load ptr, ptr %2, align 8
  %65 = getelementptr inbounds nuw %struct.PaPulseAudio_HostApiRepresentation, ptr %64, i32 0, i32 3
  %66 = load ptr, ptr %65, align 8
  %67 = icmp ne ptr %66, null
  br i1 %67, label %68, label %77

68:                                               ; preds = %63
  %69 = load ptr, ptr %2, align 8
  %70 = getelementptr inbounds nuw %struct.PaPulseAudio_HostApiRepresentation, ptr %69, i32 0, i32 3
  %71 = load ptr, ptr %70, align 8
  call void @PaUtil_FreeAllAllocations(ptr noundef %71)
  %72 = load ptr, ptr %2, align 8
  %73 = getelementptr inbounds nuw %struct.PaPulseAudio_HostApiRepresentation, ptr %72, i32 0, i32 3
  %74 = load ptr, ptr %73, align 8
  call void @PaUtil_DestroyAllocationGroup(ptr noundef %74)
  %75 = load ptr, ptr %2, align 8
  %76 = getelementptr inbounds nuw %struct.PaPulseAudio_HostApiRepresentation, ptr %75, i32 0, i32 3
  store ptr null, ptr %76, align 8
  br label %77

77:                                               ; preds = %68, %63
  %78 = load ptr, ptr %2, align 8
  call void @PaUtil_FreeMemory(ptr noundef %78)
  br label %79

79:                                               ; preds = %77, %5
  ret void
}