; Function Attrs: nounwind uwtable
define void @PaPulseAudio_Free(ptr noundef %0) local_unnamed_addr #0 {
  %.not = icmp eq ptr %0, null
  br i1 %.not, label %2, label %3

2:                                                ; preds = %1
  tail call void @PaUtil_SetLastHostErrorInfo(i32 noundef 0, i64 noundef 0, ptr noundef nonnull @.str.5) #13
  br label %30

3:                                                ; preds = %1
  %4 = getelementptr inbounds nuw i8, ptr %0, i64 82216
  %5 = load ptr, ptr %4, align 8
  %.not27 = icmp eq ptr %5, null
  br i1 %.not27, label %7, label %6

6:                                                ; preds = %3
  tail call void @pa_threaded_mainloop_stop(ptr noundef nonnull %5) #13
  br label %7

7:                                                ; preds = %6, %3
  %8 = getelementptr inbounds nuw i8, ptr %0, i64 82232
  %9 = load ptr, ptr %8, align 8
  %.not28 = icmp eq ptr %9, null
  br i1 %.not28, label %12, label %10

10:                                               ; preds = %7
  tail call void @pa_context_disconnect(ptr noundef nonnull %9) #13
  %11 = load ptr, ptr %8, align 8
  tail call void @pa_context_unref(ptr noundef %11) #13
  store ptr null, ptr %8, align 8
  br label %12

12:                                               ; preds = %10, %7
  %13 = getelementptr inbounds nuw i8, ptr %0, i64 82224
  %14 = load ptr, ptr %13, align 8
  %.not29 = icmp eq ptr %14, null
  br i1 %.not29, label %21, label %15

15:                                               ; preds = %12
  %16 = getelementptr inbounds nuw i8, ptr %0, i64 82248
  %17 = load ptr, ptr %16, align 8
  %.not30 = icmp eq ptr %17, null
  br i1 %.not30, label %21, label %18

18:                                               ; preds = %15
  %19 = getelementptr inbounds nuw i8, ptr %14, i64 56
  %20 = load ptr, ptr %19, align 8
  tail call void %20(ptr noundef nonnull %17) #13
  store ptr null, ptr %13, align 8
  store ptr null, ptr %16, align 8
  br label %21

21:                                               ; preds = %18, %15, %12
  %22 = load ptr, ptr %4, align 8
  %.not31 = icmp eq ptr %22, null
  br i1 %.not31, label %24, label %23

23:                                               ; preds = %21
  tail call void @pa_threaded_mainloop_free(ptr noundef nonnull %22) #13
  store ptr null, ptr %4, align 8
  br label %24

24:                                               ; preds = %23, %21
  %25 = getelementptr inbounds nuw i8, ptr %0, i64 264
  %26 = load ptr, ptr %25, align 8
  %.not32 = icmp eq ptr %26, null
  br i1 %.not32, label %29, label %27

27:                                               ; preds = %24
  tail call void @PaUtil_FreeAllAllocations(ptr noundef nonnull %26) #13
  %28 = load ptr, ptr %25, align 8
  tail call void @PaUtil_DestroyAllocationGroup(ptr noundef %28) #13
  store ptr null, ptr %25, align 8
  br label %29

29:                                               ; preds = %27, %24
  tail call void @PaUtil_FreeMemory(ptr noundef nonnull %0) #13
  br label %30

30:                                               ; preds = %29, %2
  ret void
}